target datalayout = "e-m:e-p270:32:32-p271:32:32-p272:64:64-i64:64-i128:128-f80:128-n8:16:32:64-S128"
target triple = "x86_64-pc-linux-gnu"

; Function Attrs: mustprogress nounwind uwtable
define internal noundef zeroext i1 @_ZL28Shell_CharIsMakeVariableNamec(i8 noundef signext %0) #6 {
  %2 = alloca i8, align 1
  store i8 %0, ptr %2, align 1
  %3 = load i8, ptr %2, align 1
  %4 = icmp ne i8 %3, 0
  br i1 %4, label %5, label %16

5:                                                ; preds = %1
  %6 = load i8, ptr %2, align 1
  %7 = sext i8 %6 to i32
  %8 = icmp eq i32 %7, 95
  br i1 %8, label %14, label %9

9:                                                ; preds = %5
  %10 = load i8, ptr %2, align 1
  %11 = sext i8 %10 to i32
  %12 = call i32 @isalpha(i32 noundef %11) #13
  %13 = icmp ne i32 %12, 0
  br label %14

14:                                               ; preds = %9, %5
  %15 = phi i1 [ true, %5 ], [ %13, %9 ]
  br label %16

16:                                               ; preds = %14, %1
  %17 = phi i1 [ false, %1 ], [ %15, %14 ]
  ret i1 %17
}

; Function Attrs: mustprogress uwtable
define dso_local noundef ptr @_ZN17cmOutputConverter23Shell_SkipMakeVariablesEPKcS1_(ptr noundef %0, ptr noundef %1) #4 align 2 {
  %3 = alloca ptr, align 8
  %4 = alloca ptr, align 8
  %5 = alloca ptr, align 8
  store ptr %0, ptr %3, align 8
  store ptr %1, ptr %4, align 8
  br label %6

6:                                                ; preds = %59, %2
  %7 = load ptr, ptr %3, align 8
  %8 = load ptr, ptr %4, align 8
  %9 = icmp ne ptr %7, %8
  br i1 %9, label %10, label %28

10:                                               ; preds = %6
  %11 = load ptr, ptr %3, align 8
  %12 = getelementptr inbounds i8, ptr %11, i64 1
  %13 = load ptr, ptr %4, align 8
  %14 = icmp ne ptr %12, %13
  br i1 %14, label %15, label %28

15:                                               ; preds = %10
  %16 = load ptr, ptr %3, align 8
  %17 = load i8, ptr %16, align 1
  %18 = sext i8 %17 to i32
  %19 = icmp eq i32 %18, 36
  br i1 %19, label %20, label %26

20:                                               ; preds = %15
  %21 = load ptr, ptr %3, align 8
  %22 = getelementptr inbounds i8, ptr %21, i64 1
  %23 = load i8, ptr %22, align 1
  %24 = sext i8 %23 to i32
  %25 = icmp eq i32 %24, 40
  br label %26

26:                                               ; preds = %20, %15
  %27 = phi i1 [ false, %15 ], [ %25, %20 ]
  br label %28

28:                                               ; preds = %26, %10, %6
  %29 = phi i1 [ false, %10 ], [ false, %6 ], [ %27, %26 ]
  br i1 %29, label %30, label %60

30:                                               ; preds = %28
  %31 = load ptr, ptr %3, align 8
  %32 = getelementptr inbounds i8, ptr %31, i64 2
  store ptr %32, ptr %5, align 8
  br label %33

33:                                               ; preds = %43, %30
  %34 = load ptr, ptr %5, align 8
  %35 = load ptr, ptr %4, align 8
  %36 = icmp ne ptr %34, %35
  br i1 %36, label %37, label %41

37:                                               ; preds = %33
  %38 = load ptr, ptr %5, align 8
  %39 = load i8, ptr %38, align 1
  %40 = call noundef zeroext i1 @_ZL28Shell_CharIsMakeVariableNamec(i8 noundef signext %39)
  br label %41

41:                                               ; preds = %37, %33
  %42 = phi i1 [ false, %33 ], [ %40, %37 ]
  br i1 %42, label %43, label %46

43:                                               ; preds = %41
  %44 = load ptr, ptr %5, align 8
  %45 = getelementptr inbounds i8, ptr %44, i32 1
  store ptr %45, ptr %5, align 8
  br label %33, !llvm.loop !14

46:                                               ; preds = %41
  %47 = load ptr, ptr %5, align 8
  %48 = load ptr, ptr %4, align 8
  %49 = icmp ne ptr %47, %48
  br i1 %49, label %50, label %58

50:                                               ; preds = %46
  %51 = load ptr, ptr %5, align 8
  %52 = load i8, ptr %51, align 1
  %53 = sext i8 %52 to i32
  %54 = icmp eq i32 %53, 41
  br i1 %54, label %55, label %58

55:                                               ; preds = %50
  %56 = load ptr, ptr %5, align 8
  %57 = getelementptr inbounds i8, ptr %56, i64 1
  store ptr %57, ptr %3, align 8
  br label %59

58:                                               ; preds = %50, %46
  br label %60

59:                                               ; preds = %55
  br label %6, !llvm.loop !15

60:                                               ; preds = %58, %28
  %61 = load ptr, ptr %3, align 8
  ret ptr %61
}