; Function Attrs: mustprogress nofree nounwind willreturn memory(read) uwtable
define dso_local noundef ptr @_ZN17cmOutputConverter23Shell_SkipMakeVariablesEPKcS1_(ptr noundef readonly %0, ptr noundef readnone %1) local_unnamed_addr #8 align 2 {
  %.not35 = icmp eq ptr %0, %1
  br i1 %.not35, label %.critedge, label %.lr.ph37

3:                                                ; preds = %.critedge2
  %4 = getelementptr inbounds i8, ptr %.030, i64 1
  %.not = icmp eq ptr %4, %1
  br i1 %.not, label %.critedge, label %.lr.ph37, !llvm.loop !11

.lr.ph37:                                         ; preds = %2, %3
  %.01836 = phi ptr [ %4, %3 ], [ %0, %2 ]
  %5 = getelementptr inbounds i8, ptr %.01836, i64 1
  %.not21 = icmp eq ptr %5, %1
  br i1 %.not21, label %.critedge, label %6

6:                                                ; preds = %.lr.ph37
  %7 = load i8, ptr %.01836, align 1
  %8 = icmp eq i8 %7, 36
  br i1 %8, label %9, label %.critedge

9:                                                ; preds = %6
  %10 = load i8, ptr %5, align 1
  %11 = icmp ne i8 %10, 40
  %12 = getelementptr inbounds i8, ptr %.01836, i64 2
  %.not2229 = icmp eq ptr %12, %1
  %or.cond = select i1 %11, i1 true, i1 %.not2229
  br i1 %or.cond, label %.critedge, label %.lr.ph

.lr.ph:                                           ; preds = %9, %_ZL28Shell_CharIsMakeVariableNamec.exit.thread
  %.030 = phi ptr [ %16, %_ZL28Shell_CharIsMakeVariableNamec.exit.thread ], [ %12, %9 ]
  %13 = load i8, ptr %.030, align 1
  switch i8 %13, label %_ZL28Shell_CharIsMakeVariableNamec.exit [
    i8 0, label %.critedge
    i8 95, label %_ZL28Shell_CharIsMakeVariableNamec.exit.thread
  ]

_ZL28Shell_CharIsMakeVariableNamec.exit:          ; preds = %.lr.ph
  %14 = sext i8 %13 to i32
  %15 = tail call i32 @isalpha(i32 noundef %14) #19
  %.not24 = icmp eq i32 %15, 0
  br i1 %.not24, label %.critedge2, label %_ZL28Shell_CharIsMakeVariableNamec.exit.thread

_ZL28Shell_CharIsMakeVariableNamec.exit.thread:   ; preds = %.lr.ph, %_ZL28Shell_CharIsMakeVariableNamec.exit
  %16 = getelementptr inbounds i8, ptr %.030, i64 1
  %.not22 = icmp eq ptr %16, %1
  br i1 %.not22, label %.critedge, label %.lr.ph, !llvm.loop !12

.critedge2:                                       ; preds = %_ZL28Shell_CharIsMakeVariableNamec.exit
  %17 = icmp eq i8 %13, 41
  br i1 %17, label %3, label %.critedge

.critedge:                                        ; preds = %9, %.critedge2, %6, %3, %.lr.ph37, %_ZL28Shell_CharIsMakeVariableNamec.exit.thread, %.lr.ph, %2
  %.01828 = phi ptr [ %0, %2 ], [ %.01836, %.lr.ph ], [ %.01836, %_ZL28Shell_CharIsMakeVariableNamec.exit.thread ], [ %.01836, %9 ], [ %.01836, %.critedge2 ], [ %.01836, %6 ], [ %1, %3 ], [ %.01836, %.lr.ph37 ]
  ret ptr %.01828
}